; Function Attrs: mustprogress nofree norecurse nosync nounwind willreturn memory(argmem: readwrite) uwtable
define hidden void @_ZN17ModelRegistration5resetEv(ptr nocapture noundef nonnull align 8 dereferenceable(64) %0) local_unnamed_addr #8 align 2 personality ptr @__gxx_personality_v0 {
  %2 = getelementptr inbounds i8, ptr %0, i64 8
  store i32 0, ptr %2, align 8
  %3 = getelementptr inbounds i8, ptr %0, i64 12
  store i32 0, ptr %3, align 4
  %4 = getelementptr inbounds i8, ptr %0, i64 16
  %5 = load ptr, ptr %4, align 8
  %6 = getelementptr inbounds i8, ptr %0, i64 24
  %7 = load ptr, ptr %6, align 8
  %.not.i.i = icmp eq ptr %7, %5
  br i1 %.not.i.i, label %_ZNSt6vectorIN2cv6Point_IfEESaIS2_EE5clearEv.exit, label %8

8:                                                ; preds = %1
  store ptr %5, ptr %6, align 8
  br label %_ZNSt6vectorIN2cv6Point_IfEESaIS2_EE5clearEv.exit

_ZNSt6vectorIN2cv6Point_IfEESaIS2_EE5clearEv.exit: ; preds = %1, %8
  %9 = getelementptr inbounds i8, ptr %0, i64 40
  %10 = load ptr, ptr %9, align 8
  %11 = getelementptr inbounds i8, ptr %0, i64 48
  %12 = load ptr, ptr %11, align 8
  %.not.i.i1 = icmp eq ptr %12, %10
  br i1 %.not.i.i1, label %_ZNSt6vectorIN2cv7Point3_IfEESaIS2_EE5clearEv.exit, label %13

13:                                               ; preds = %_ZNSt6vectorIN2cv6Point_IfEESaIS2_EE5clearEv.exit
  store ptr %10, ptr %11, align 8
  br label %_ZNSt6vectorIN2cv7Point3_IfEESaIS2_EE5clearEv.exit

_ZNSt6vectorIN2cv7Point3_IfEESaIS2_EE5clearEv.exit: ; preds = %_ZNSt6vectorIN2cv6Point_IfEESaIS2_EE5clearEv.exit, %13
  ret void
}